; Function Attrs: mustprogress nofree norecurse nosync nounwind willreturn memory(argmem: read) uwtable
define { double, double } @_ZNK32pxrInternal_v0_24__pxrReserved__11GfDualQuatd9GetLengthEv(ptr noundef nonnull readonly align 8 captures(none) dereferenceable(64) %0) local_unnamed_addr #2 align 2 {
  %2 = load double, ptr %0, align 8
  %3 = getelementptr inbounds nuw i8, ptr %0, i64 8
  %4 = load double, ptr %3, align 8
  %5 = fmul double %4, %4
  %6 = tail call double @llvm.fmuladd.f64(double %2, double %2, double %5)
  %7 = getelementptr inbounds nuw i8, ptr %0, i64 16
  %8 = load double, ptr %7, align 8
  %9 = tail call noundef double @llvm.fmuladd.f64(double %8, double %8, double %6)
  %10 = getelementptr inbounds nuw i8, ptr %0, i64 24
  %11 = load double, ptr %10, align 8
  %12 = tail call noundef double @llvm.fmuladd.f64(double %11, double %11, double %9)
  %13 = fcmp oeq double %12, 0.000000e+00
  br i1 %13, label %28, label %14

14:                                               ; preds = %1
  %sqrt.i = tail call noundef double @llvm.sqrt.f64(double %12)
  %15 = getelementptr inbounds nuw i8, ptr %0, i64 32
  %16 = load double, ptr %15, align 8
  %17 = getelementptr inbounds nuw i8, ptr %0, i64 40
  %18 = load double, ptr %17, align 8
  %19 = fmul double %4, %18
  %20 = tail call double @llvm.fmuladd.f64(double %2, double %16, double %19)
  %21 = getelementptr inbounds nuw i8, ptr %0, i64 48
  %22 = load double, ptr %21, align 8
  %23 = tail call noundef double @llvm.fmuladd.f64(double %8, double %22, double %20)
  %24 = getelementptr inbounds nuw i8, ptr %0, i64 56
  %25 = load double, ptr %24, align 8
  %26 = tail call noundef double @llvm.fmuladd.f64(double %11, double %25, double %23)
  %27 = fdiv double %26, %sqrt.i
  br label %28

28:                                               ; preds = %1, %14
  %.sroa.0.0 = phi double [ %sqrt.i, %14 ], [ 0.000000e+00, %1 ]
  %.sroa.3.0 = phi double [ %27, %14 ], [ 0.000000e+00, %1 ]
  %.fca.0.insert = insertvalue { double, double } poison, double %.sroa.0.0, 0
  %.fca.1.insert = insertvalue { double, double } %.fca.0.insert, double %.sroa.3.0, 1
  ret { double, double } %.fca.1.insert
}